; Function Attrs: mustprogress nounwind uwtable
define hidden void @_ZN10JavaThread40check_special_condition_for_native_transEPS_(ptr noundef %0) local_unnamed_addr #0 align 2 {
  %2 = getelementptr inbounds i8, ptr %0, i64 1092
  store volatile i32 6, ptr %2, align 4
  %3 = getelementptr inbounds i8, ptr %0, i64 1096
  %4 = load volatile i64, ptr %3, align 8
  tail call void asm sideeffect "", "~{memory},~{dirflag},~{fpsr},~{flags}"() #21, !srcloc !17
  %5 = and i64 %4, 1
  %.not.i.i = icmp eq i64 %5, 0
  br i1 %.not.i.i, label %_ZN18SafepointMechanism20process_if_requestedEP10JavaThreadbb.exit.i, label %6

6:                                                ; preds = %1
  tail call void @_ZN18SafepointMechanism7processEP10JavaThreadbb(ptr noundef nonnull %0, i1 noundef zeroext true, i1 noundef zeroext true) #21
  br label %_ZN18SafepointMechanism20process_if_requestedEP10JavaThreadbb.exit.i

_ZN18SafepointMechanism20process_if_requestedEP10JavaThreadbb.exit.i: ; preds = %6, %1
  %7 = getelementptr inbounds i8, ptr %0, i64 1088
  %8 = load volatile i32, ptr %7, align 8
  %9 = and i32 %8, 12
  %.not.i = icmp eq i32 %9, 0
  br i1 %.not.i, label %_ZN18SafepointMechanism36process_if_requested_with_exit_checkEP10JavaThreadb.exit, label %10

10:                                               ; preds = %_ZN18SafepointMechanism20process_if_requestedEP10JavaThreadbb.exit.i
  %11 = load volatile i32, ptr %7, align 8
  %12 = and i32 %11, 8
  %.not.i3.i = icmp eq i32 %12, 0
  br i1 %.not.i3.i, label %15, label %13

13:                                               ; preds = %10
  %14 = getelementptr inbounds i8, ptr %0, i64 928
  tail call void @_ZN15JavaFrameAnchor13make_walkableEv(ptr noundef nonnull align 8 dereferenceable(24) %14) #21
  tail call void @_ZN10JavaThread30wait_for_object_deoptimizationEv(ptr noundef nonnull align 8 dereferenceable(1800) %0)
  br label %15

15:                                               ; preds = %13, %10
  %16 = load volatile i32, ptr %7, align 8
  %17 = and i32 %16, 4
  %.not1.i.i = icmp eq i32 %17, 0
  br i1 %.not1.i.i, label %_ZN18SafepointMechanism36process_if_requested_with_exit_checkEP10JavaThreadb.exit, label %18

18:                                               ; preds = %15
  tail call void @_ZN17JfrThreadSampling21on_javathread_suspendEP10JavaThread(ptr noundef nonnull %0) #21
  br label %_ZN18SafepointMechanism36process_if_requested_with_exit_checkEP10JavaThreadb.exit

_ZN18SafepointMechanism36process_if_requested_with_exit_checkEP10JavaThreadb.exit: ; preds = %_ZN18SafepointMechanism20process_if_requestedEP10JavaThreadbb.exit.i, %15, %18
  tail call void @_ZN17StackWatermarkSet13before_unwindEP10JavaThread(ptr noundef nonnull %0) #21
  ret void
}